target datalayout = "e-m:e-p270:32:32-p271:32:32-p272:64:64-i64:64-i128:128-f80:128-n8:16:32:64-S128"
target triple = "x86_64-pc-linux-gnu"

%struct.Node = type { i32 }
%struct.ExprContext = type { i32, ptr, ptr, ptr, ptr, ptr, ptr, ptr, ptr, ptr, i64, i8, i64, i8, ptr, ptr, ptr, ptr }

@CurrentMemoryContext = external global ptr, align 8
@.str.1 = private unnamed_addr constant [12 x i8] c"ExprContext\00", align 1

; Function Attrs: inlinehint nounwind uwtable
define internal ptr @newNode(i64 noundef %0, i32 noundef %1) #3 {
  %3 = alloca i64, align 8
  %4 = alloca i32, align 4
  %5 = alloca ptr, align 8
  store i64 %0, ptr %3, align 8
  store i32 %1, ptr %4, align 4
  call void @llvm.lifetime.start.p0(i64 8, ptr %5) #6
  %6 = load i64, ptr %3, align 8
  %7 = call ptr @palloc0(i64 noundef %6)
  store ptr %7, ptr %5, align 8
  %8 = load i32, ptr %4, align 4
  %9 = load ptr, ptr %5, align 8
  %10 = getelementptr inbounds nuw %struct.Node, ptr %9, i32 0, i32 0
  store i32 %8, ptr %10, align 4
  %11 = load ptr, ptr %5, align 8
  call void @llvm.lifetime.end.p0(i64 8, ptr %5) #6
  ret ptr %11
}

; Function Attrs: nounwind uwtable
define dso_local ptr @CreateStandaloneExprContext() #0 {
  %1 = alloca ptr, align 8
  %2 = alloca i32, align 4
  call void @llvm.lifetime.start.p0(i64 8, ptr %1) #6
  %3 = call ptr @newNode(i64 noundef 144, i32 noundef 381)
  store ptr %3, ptr %1, align 8
  %4 = load ptr, ptr %1, align 8
  %5 = getelementptr inbounds nuw %struct.ExprContext, ptr %4, i32 0, i32 1
  store ptr null, ptr %5, align 8
  %6 = load ptr, ptr %1, align 8
  %7 = getelementptr inbounds nuw %struct.ExprContext, ptr %6, i32 0, i32 2
  store ptr null, ptr %7, align 8
  %8 = load ptr, ptr %1, align 8
  %9 = getelementptr inbounds nuw %struct.ExprContext, ptr %8, i32 0, i32 3
  store ptr null, ptr %9, align 8
  %10 = load ptr, ptr @CurrentMemoryContext, align 8
  %11 = load ptr, ptr %1, align 8
  %12 = getelementptr inbounds nuw %struct.ExprContext, ptr %11, i32 0, i32 4
  store ptr %10, ptr %12, align 8
  br label %13

13:                                               ; preds = %0
  br label %14

14:                                               ; preds = %13
  br label %15

15:                                               ; preds = %14
  store i32 1, ptr %2, align 4
  %16 = load ptr, ptr @CurrentMemoryContext, align 8
  %17 = call ptr @AllocSetContextCreateInternal(ptr noundef %16, ptr noundef @.str.1, i64 noundef 0, i64 noundef 8192, i64 noundef 8388608)
  %18 = load ptr, ptr %1, align 8
  %19 = getelementptr inbounds nuw %struct.ExprContext, ptr %18, i32 0, i32 5
  store ptr %17, ptr %19, align 8
  %20 = load ptr, ptr %1, align 8
  %21 = getelementptr inbounds nuw %struct.ExprContext, ptr %20, i32 0, i32 6
  store ptr null, ptr %21, align 8
  %22 = load ptr, ptr %1, align 8
  %23 = getelementptr inbounds nuw %struct.ExprContext, ptr %22, i32 0, i32 7
  store ptr null, ptr %23, align 8
  %24 = load ptr, ptr %1, align 8
  %25 = getelementptr inbounds nuw %struct.ExprContext, ptr %24, i32 0, i32 8
  store ptr null, ptr %25, align 8
  %26 = load ptr, ptr %1, align 8
  %27 = getelementptr inbounds nuw %struct.ExprContext, ptr %26, i32 0, i32 9
  store ptr null, ptr %27, align 8
  %28 = load ptr, ptr %1, align 8
  %29 = getelementptr inbounds nuw %struct.ExprContext, ptr %28, i32 0, i32 10
  store i64 0, ptr %29, align 8
  %30 = load ptr, ptr %1, align 8
  %31 = getelementptr inbounds nuw %struct.ExprContext, ptr %30, i32 0, i32 11
  store i8 1, ptr %31, align 8
  %32 = load ptr, ptr %1, align 8
  %33 = getelementptr inbounds nuw %struct.ExprContext, ptr %32, i32 0, i32 12
  store i64 0, ptr %33, align 8
  %34 = load ptr, ptr %1, align 8
  %35 = getelementptr inbounds nuw %struct.ExprContext, ptr %34, i32 0, i32 13
  store i8 1, ptr %35, align 8
  %36 = load ptr, ptr %1, align 8
  %37 = getelementptr inbounds nuw %struct.ExprContext, ptr %36, i32 0, i32 16
  store ptr null, ptr %37, align 8
  %38 = load ptr, ptr %1, align 8
  %39 = getelementptr inbounds nuw %struct.ExprContext, ptr %38, i32 0, i32 17
  store ptr null, ptr %39, align 8
  %40 = load ptr, ptr %1, align 8
  call void @llvm.lifetime.end.p0(i64 8, ptr %1) #6
  ret ptr %40
}