; Function Attrs: nounwind uwtable
define dso_local noundef ptr @CreateStandaloneExprContext() local_unnamed_addr #0 {
  %1 = tail call noundef ptr @palloc0(i64 noundef 144) #12
  store i32 381, ptr %1, align 4
  %2 = getelementptr inbounds nuw i8, ptr %1, i64 8
  tail call void @llvm.memset.p0.i64(ptr noundef nonnull align 8 dereferenceable(24) %2, i8 0, i64 24, i1 false)
  %3 = load ptr, ptr @CurrentMemoryContext, align 8
  %4 = getelementptr inbounds nuw i8, ptr %1, i64 32
  store ptr %3, ptr %4, align 8
  %5 = tail call ptr @AllocSetContextCreateInternal(ptr noundef %3, ptr noundef nonnull @.str.1, i64 noundef 0, i64 noundef 8192, i64 noundef 8388608) #12
  %6 = getelementptr inbounds nuw i8, ptr %1, i64 40
  store ptr %5, ptr %6, align 8
  %7 = getelementptr inbounds nuw i8, ptr %1, i64 48
  %8 = getelementptr inbounds nuw i8, ptr %1, i64 88
  tail call void @llvm.memset.p0.i64(ptr noundef nonnull align 8 dereferenceable(40) %7, i8 0, i64 40, i1 false)
  store i8 1, ptr %8, align 8
  %9 = getelementptr inbounds nuw i8, ptr %1, i64 96
  store i64 0, ptr %9, align 8
  %10 = getelementptr inbounds nuw i8, ptr %1, i64 104
  store i8 1, ptr %10, align 8
  %11 = getelementptr inbounds nuw i8, ptr %1, i64 128
  tail call void @llvm.memset.p0.i64(ptr noundef nonnull align 8 dereferenceable(16) %11, i8 0, i64 16, i1 false)
  ret ptr %1
}